target datalayout = "e-m:e-p270:32:32-p271:32:32-p272:64:64-i64:64-i128:128-f80:128-n8:16:32:64-S128"
target triple = "x86_64-pc-linux-gnu"

%struct.Py_buffer = type { ptr, ptr, i64, i64, i32, i32, ptr, ptr, ptr, ptr, ptr }

@.str.105 = private unnamed_addr constant [3 x i8] c"y*\00", align 1

; Function Attrs: nounwind uwtable
define internal ptr @getargs_y_star(ptr noundef %0, ptr noundef %1) #0 {
  %3 = alloca ptr, align 8
  %4 = alloca ptr, align 8
  %5 = alloca ptr, align 8
  %6 = alloca %struct.Py_buffer, align 8
  %7 = alloca i32, align 4
  %8 = alloca ptr, align 8
  store ptr %0, ptr %4, align 8, !tbaa !3
  store ptr %1, ptr %5, align 8, !tbaa !3
  call void @llvm.lifetime.start.p0(i64 80, ptr %6) #9
  %9 = load ptr, ptr %5, align 8, !tbaa !3
  %10 = call i32 (ptr, ptr, ...) @PyArg_ParseTuple(ptr noundef %9, ptr noundef @.str.105, ptr noundef %6)
  %11 = icmp ne i32 %10, 0
  br i1 %11, label %13, label %12

12:                                               ; preds = %2
  store ptr null, ptr %3, align 8
  store i32 1, ptr %7, align 4
  br label %20

13:                                               ; preds = %2
  call void @llvm.lifetime.start.p0(i64 8, ptr %8) #9
  %14 = getelementptr inbounds nuw %struct.Py_buffer, ptr %6, i32 0, i32 0
  %15 = load ptr, ptr %14, align 8, !tbaa !24
  %16 = getelementptr inbounds nuw %struct.Py_buffer, ptr %6, i32 0, i32 2
  %17 = load i64, ptr %16, align 8, !tbaa !27
  %18 = call ptr @PyBytes_FromStringAndSize(ptr noundef %15, i64 noundef %17)
  store ptr %18, ptr %8, align 8, !tbaa !3
  call void @PyBuffer_Release(ptr noundef %6)
  %19 = load ptr, ptr %8, align 8, !tbaa !3
  store ptr %19, ptr %3, align 8
  store i32 1, ptr %7, align 4
  call void @llvm.lifetime.end.p0(i64 8, ptr %8) #9
  br label %20

20:                                               ; preds = %13, %12
  call void @llvm.lifetime.end.p0(i64 80, ptr %6) #9
  %21 = load ptr, ptr %3, align 8
  ret ptr %21
}