; Function Attrs: nounwind uwtable
define internal ptr @getargs_y_star(ptr readnone captures(none) %0, ptr noundef %1) #0 {
  %3 = alloca %struct.Py_buffer, align 8
  call void @llvm.lifetime.start.p0(i64 80, ptr nonnull %3) #7
  %4 = call i32 (ptr, ptr, ...) @PyArg_ParseTuple(ptr noundef %1, ptr noundef nonnull @.str.105, ptr noundef nonnull %3) #7
  %.not = icmp eq i32 %4, 0
  br i1 %.not, label %10, label %5

5:                                                ; preds = %2
  %6 = load ptr, ptr %3, align 8, !tbaa !31
  %7 = getelementptr inbounds nuw i8, ptr %3, i64 16
  %8 = load i64, ptr %7, align 8, !tbaa !34
  %9 = call ptr @PyBytes_FromStringAndSize(ptr noundef %6, i64 noundef %8) #7
  call void @PyBuffer_Release(ptr noundef nonnull %3) #7
  br label %10

10:                                               ; preds = %2, %5
  %.0 = phi ptr [ %9, %5 ], [ null, %2 ]
  call void @llvm.lifetime.end.p0(i64 80, ptr nonnull %3) #7
  ret ptr %.0
}